; Function Attrs: mustprogress uwtable
define hidden void @_ZN13expr_replacerclEP4exprR7obj_refIS0_11ast_managerERS2_IN18dependency_managerINS3_22expr_dependency_configEE10dependencyES3_E(ptr noundef nonnull align 8 dereferenceable(8) %0, ptr noundef %1, ptr noundef nonnull align 8 dereferenceable(16) %2, ptr noundef nonnull align 8 dereferenceable(16) %3) local_unnamed_addr #3 align 2 personality ptr @__gxx_personality_v0 {
  %5 = alloca %class.obj_ref.27, align 8
  call void @llvm.lifetime.start.p0(i64 16, ptr nonnull %5) #18
  %6 = load ptr, ptr %0, align 8, !tbaa !3
  %7 = getelementptr inbounds nuw i8, ptr %6, i64 16
  %8 = load ptr, ptr %7, align 8
  %9 = tail call noundef nonnull align 8 dereferenceable(976) ptr %8(ptr noundef nonnull align 8 dereferenceable(8) %0)
  store ptr null, ptr %5, align 8, !tbaa !14
  %10 = getelementptr inbounds nuw i8, ptr %5, i64 8
  store ptr %9, ptr %10, align 8, !tbaa !12
  %11 = load ptr, ptr %0, align 8, !tbaa !3
  %12 = getelementptr inbounds nuw i8, ptr %11, i64 32
  %13 = load ptr, ptr %12, align 8
  invoke void %13(ptr noundef nonnull align 8 dereferenceable(8) %0, ptr noundef %1, ptr noundef nonnull align 8 dereferenceable(16) %2, ptr noundef nonnull align 8 dereferenceable(16) %5, ptr noundef nonnull align 8 dereferenceable(16) %3)
          to label %14 unwind label %26

14:                                               ; preds = %4
  %15 = load ptr, ptr %5, align 8, !tbaa !14
  %.not.i.i = icmp eq ptr %15, null
  br i1 %.not.i.i, label %_ZN7obj_refI3app11ast_managerED2Ev.exit, label %16

16:                                               ; preds = %14
  %17 = load ptr, ptr %10, align 8, !tbaa !17
  %18 = getelementptr inbounds nuw i8, ptr %15, i64 8
  %19 = load i32, ptr %18, align 4, !tbaa !18
  %20 = add i32 %19, -1
  store i32 %20, ptr %18, align 4, !tbaa !18
  %21 = icmp eq i32 %20, 0
  br i1 %21, label %22, label %_ZN7obj_refI3app11ast_managerED2Ev.exit

22:                                               ; preds = %16
  invoke void @_ZN11ast_manager11delete_nodeEP3ast(ptr noundef nonnull align 8 dereferenceable(976) %17, ptr noundef nonnull %15)
          to label %_ZN7obj_refI3app11ast_managerED2Ev.exit unwind label %23

23:                                               ; preds = %22
  %24 = landingpad { ptr, i32 }
          catch ptr null
  %25 = extractvalue { ptr, i32 } %24, 0
  call void @__clang_call_terminate(ptr %25) #19
  unreachable

_ZN7obj_refI3app11ast_managerED2Ev.exit:          ; preds = %14, %16, %22
  call void @llvm.lifetime.end.p0(i64 16, ptr nonnull %5) #18
  ret void

26:                                               ; preds = %4
  %27 = landingpad { ptr, i32 }
          cleanup
  call void @_ZN7obj_refI3app11ast_managerED2Ev(ptr noundef nonnull align 8 dereferenceable(16) %5) #18
  call void @llvm.lifetime.end.p0(i64 16, ptr nonnull %5) #18
  resume { ptr, i32 } %27
}